target datalayout = "e-m:e-p270:32:32-p271:32:32-p272:64:64-i64:64-i128:128-f80:128-n8:16:32:64-S128"
target triple = "x86_64-unknown-linux-gnu"

@.str.38 = private unnamed_addr constant [19 x i8] c"node.js SSL buffer\00", align 1

; Function Attrs: mustprogress nounwind uwtable
define internal noundef ptr @"_ZZN4node6crypto7NodeBIO9GetMethodEvENK3$_0clEv"(ptr noundef nonnull align 1 dereferenceable(1) %this) #4 align 2 {
entry:
  %this.addr = alloca ptr, align 8
  %method = alloca ptr, align 8
  store ptr %this, ptr %this.addr, align 8
  %call = call ptr @BIO_meth_new(i32 noundef 1025, ptr noundef @.str.38)
  store ptr %call, ptr %method, align 8
  %0 = load ptr, ptr %method, align 8
  %call2 = call i32 @BIO_meth_set_write(ptr noundef %0, ptr noundef @_ZN4node6crypto7NodeBIO5WriteEP6bio_stPKci)
  %1 = load ptr, ptr %method, align 8
  %call3 = call i32 @BIO_meth_set_read(ptr noundef %1, ptr noundef @_ZN4node6crypto7NodeBIO4ReadEP6bio_stPci)
  %2 = load ptr, ptr %method, align 8
  %call4 = call i32 @BIO_meth_set_puts(ptr noundef %2, ptr noundef @_ZN4node6crypto7NodeBIO4PutsEP6bio_stPKc)
  %3 = load ptr, ptr %method, align 8
  %call5 = call i32 @BIO_meth_set_gets(ptr noundef %3, ptr noundef @_ZN4node6crypto7NodeBIO4GetsEP6bio_stPci)
  %4 = load ptr, ptr %method, align 8
  %call6 = call i32 @BIO_meth_set_ctrl(ptr noundef %4, ptr noundef @_ZN4node6crypto7NodeBIO4CtrlEP6bio_stilPv)
  %5 = load ptr, ptr %method, align 8
  %call7 = call i32 @BIO_meth_set_create(ptr noundef %5, ptr noundef @_ZN4node6crypto7NodeBIO3NewEP6bio_st)
  %6 = load ptr, ptr %method, align 8
  %call8 = call i32 @BIO_meth_set_destroy(ptr noundef %6, ptr noundef @_ZN4node6crypto7NodeBIO4FreeEP6bio_st)
  %7 = load ptr, ptr %method, align 8
  ret ptr %7
}