; Function Attrs: mustprogress nounwind uwtable
define internal fastcc noundef ptr @"_ZZN4node6crypto7NodeBIO9GetMethodEvENK3$_0clEv"() unnamed_addr #3 align 2 {
entry:
  %call = tail call ptr @BIO_meth_new(i32 noundef 1025, ptr noundef nonnull @.str.38) #16
  %call2 = tail call i32 @BIO_meth_set_write(ptr noundef %call, ptr noundef nonnull @_ZN4node6crypto7NodeBIO5WriteEP6bio_stPKci) #16
  %call3 = tail call i32 @BIO_meth_set_read(ptr noundef %call, ptr noundef nonnull @_ZN4node6crypto7NodeBIO4ReadEP6bio_stPci) #16
  %call4 = tail call i32 @BIO_meth_set_puts(ptr noundef %call, ptr noundef nonnull @_ZN4node6crypto7NodeBIO4PutsEP6bio_stPKc) #16
  %call5 = tail call i32 @BIO_meth_set_gets(ptr noundef %call, ptr noundef nonnull @_ZN4node6crypto7NodeBIO4GetsEP6bio_stPci) #16
  %call6 = tail call i32 @BIO_meth_set_ctrl(ptr noundef %call, ptr noundef nonnull @_ZN4node6crypto7NodeBIO4CtrlEP6bio_stilPv) #16
  %call7 = tail call i32 @BIO_meth_set_create(ptr noundef %call, ptr noundef nonnull @_ZN4node6crypto7NodeBIO3NewEP6bio_st) #16
  %call8 = tail call i32 @BIO_meth_set_destroy(ptr noundef %call, ptr noundef nonnull @_ZN4node6crypto7NodeBIO4FreeEP6bio_st) #16
  ret ptr %call
}